target datalayout = "e-m:e-p270:32:32-p271:32:32-p272:64:64-i64:64-i128:128-f80:128-n8:16:32:64-S128"
target triple = "x86_64-pc-linux-gnu"

%"class.std::bad_variant_access" = type { %"class.std::exception", ptr }
%"class.std::exception" = type { ptr }
%struct.BasicID2 = type { i64 }
%"union.std::__detail::__variant::_Variadic_union.1209" = type { %"union.std::__detail::__variant::_Variadic_union.1210" }
%"union.std::__detail::__variant::_Variadic_union.1210" = type { %"struct.std::__detail::__variant::_Uninitialized.1211" }
%"struct.std::__detail::__variant::_Uninitialized.1211" = type { %struct.BasicID2 }
%"struct.std::__detail::__variant::_Variant_storage.1208" = type <{ %"union.std::__detail::__variant::_Variadic_union.1209", i8, [7 x i8] }>

@_ZTVSt9exception = available_externally unnamed_addr constant { [5 x ptr] } { [5 x ptr] [ptr null, ptr @_ZTISt9exception, ptr @_ZNSt9exceptionD1Ev, ptr @_ZNSt9exceptionD0Ev, ptr @_ZNKSt9exception4whatEv] }, align 8
@.str.117 = private unnamed_addr constant [31 x i8] c"std::get: variant is valueless\00", align 1
@.str.118 = private unnamed_addr constant [34 x i8] c"std::get: wrong index for variant\00", align 1
@_ZTISt18bad_variant_access = linkonce_odr constant { ptr, ptr, ptr } { ptr getelementptr inbounds (ptr, ptr @_ZTVN10__cxxabiv120__si_class_type_infoE, i64 2), ptr @_ZTSSt18bad_variant_access, ptr @_ZTISt9exception }, comdat, align 8
@_ZTVSt18bad_variant_access = linkonce_odr unnamed_addr constant { [5 x ptr] } { [5 x ptr] [ptr null, ptr @_ZTISt18bad_variant_access, ptr @_ZNSt9exceptionD2Ev, ptr @_ZNSt18bad_variant_accessD0Ev, ptr @_ZNKSt18bad_variant_access4whatEv] }, comdat, align 8

; Function Attrs: mustprogress nounwind optsize uwtable
define linkonce_odr void @_ZNSt9exceptionC2Ev(ptr noundef nonnull align 8 dereferenceable(8) %0) unnamed_addr #2 comdat align 2 {
  %2 = alloca ptr, align 8
  store ptr %0, ptr %2, align 8, !tbaa !25
  %3 = load ptr, ptr %2, align 8
  store ptr getelementptr inbounds inrange(-16, 24) ({ [5 x ptr] }, ptr @_ZTVSt9exception, i32 0, i32 0, i32 2), ptr %3, align 8, !tbaa !27
  ret void
}

; Function Attrs: mustprogress nounwind optsize uwtable
define internal noundef nonnull align 8 dereferenceable(8) ptr @_ZNRSt8__detail9__variant14_UninitializedIZL26nanobind_init_test_stl_extRN8nanobind7module_EE8BasicID2Lb1EE6_M_getEv(ptr noundef nonnull align 8 dereferenceable(8) %0) #2 align 2 {
  %2 = alloca ptr, align 8
  store ptr %0, ptr %2, align 8, !tbaa !2220
  %3 = load ptr, ptr %2, align 8
  %4 = getelementptr inbounds nuw %"struct.std::__detail::__variant::_Uninitialized.1211", ptr %3, i32 0, i32 0
  ret ptr %4
}

; Function Attrs: mustprogress nounwind optsize uwtable
define linkonce_odr void @_ZNSt18bad_variant_accessC2EPKc(ptr noundef nonnull align 8 dereferenceable(16) %0, ptr noundef %1) unnamed_addr #2 comdat align 2 {
  %3 = alloca ptr, align 8
  %4 = alloca ptr, align 8
  store ptr %0, ptr %3, align 8, !tbaa !1124
  store ptr %1, ptr %4, align 8, !tbaa !34
  %5 = load ptr, ptr %3, align 8
  call void @_ZNSt9exceptionC2Ev(ptr noundef nonnull align 8 dereferenceable(8) %5) #23
  store ptr getelementptr inbounds inrange(-16, 24) ({ [5 x ptr] }, ptr @_ZTVSt18bad_variant_access, i32 0, i32 0, i32 2), ptr %5, align 8, !tbaa !27
  %6 = getelementptr inbounds nuw %"class.std::bad_variant_access", ptr %5, i32 0, i32 1
  %7 = load ptr, ptr %4, align 8, !tbaa !34
  store ptr %7, ptr %6, align 8, !tbaa !1126
  ret void
}

; Function Attrs: mustprogress nounwind optsize uwtable
define internal noundef nonnull align 8 dereferenceable(8) ptr @_ZNSt8__detail9__variant7__get_nILm1ERNS0_15_Variadic_unionIJSt9monostateZL26nanobind_init_test_stl_extRN8nanobind7module_EE8BasicID2ZL26nanobind_init_test_stl_extS6_E8BasicID1EEEEEDcOT0_(ptr noundef nonnull align 8 dereferenceable(8) %0) #2 {
  %2 = alloca ptr, align 8
  store ptr %0, ptr %2, align 8, !tbaa !2208
  %3 = load ptr, ptr %2, align 8, !tbaa !2208
  %4 = call noundef nonnull align 8 dereferenceable(8) ptr @_ZNRSt8__detail9__variant14_UninitializedIZL26nanobind_init_test_stl_extRN8nanobind7module_EE8BasicID2Lb1EE6_M_getEv(ptr noundef nonnull align 8 dereferenceable(8) %3) #23
  ret ptr %4
}

; Function Attrs: inlinehint mustprogress optsize uwtable
define linkonce_odr void @_ZSt26__throw_bad_variant_accessPKc(ptr noundef %0) #10 comdat {
  %2 = alloca ptr, align 8
  store ptr %0, ptr %2, align 8, !tbaa !34
  %3 = call ptr @__cxa_allocate_exception(i64 16) #21
  %4 = load ptr, ptr %2, align 8, !tbaa !34
  call void @_ZNSt18bad_variant_accessC2EPKc(ptr noundef nonnull align 8 dereferenceable(16) %3, ptr noundef %4) #23
  call void @__cxa_throw(ptr %3, ptr @_ZTISt18bad_variant_access, ptr @_ZNSt9exceptionD2Ev) #25
  unreachable
}

; Function Attrs: mustprogress nounwind optsize uwtable
define internal noundef zeroext i1 @_ZNKSt8__detail9__variant16_Variant_storageILb1EJSt9monostateZL26nanobind_init_test_stl_extRN8nanobind7module_EE8BasicID2ZL26nanobind_init_test_stl_extS5_E8BasicID1EE8_M_validEv(ptr noundef nonnull align 8 dereferenceable(9) %0) #2 align 2 {
  %2 = alloca ptr, align 8
  store ptr %0, ptr %2, align 8, !tbaa !2204
  ret i1 true
}

; Function Attrs: mustprogress nounwind optsize uwtable
define internal noundef nonnull align 8 dereferenceable(8) ptr @_ZNSt8__detail9__variant5__getILm1ERSt7variantIJSt9monostateZL26nanobind_init_test_stl_extRN8nanobind7module_EE8BasicID2ZL26nanobind_init_test_stl_extS6_E8BasicID1EEEEDcOT0_(ptr noundef nonnull align 8 dereferenceable(9) %0) #2 {
  %2 = alloca ptr, align 8
  store ptr %0, ptr %2, align 8, !tbaa !2192
  %3 = load ptr, ptr %2, align 8, !tbaa !2192
  %4 = getelementptr inbounds nuw %"struct.std::__detail::__variant::_Variant_storage.1208", ptr %3, i32 0, i32 0
  %5 = call noundef nonnull align 8 dereferenceable(8) ptr @_ZNSt8__detail9__variant7__get_nILm1ERNS0_15_Variadic_unionIJSt9monostateZL26nanobind_init_test_stl_extRN8nanobind7module_EE8BasicID2ZL26nanobind_init_test_stl_extS6_E8BasicID1EEEEEDcOT0_(ptr noundef nonnull align 8 dereferenceable(8) %4) #23
  ret ptr %5
}

; Function Attrs: inlinehint mustprogress optsize uwtable
define linkonce_odr void @_ZSt26__throw_bad_variant_accessb(i1 noundef zeroext %0) #10 comdat {
  %2 = alloca i8, align 1
  %3 = zext i1 %0 to i8
  store i8 %3, ptr %2, align 1, !tbaa !103
  %4 = load i8, ptr %2, align 1, !tbaa !103, !range !104, !noundef !105
  %5 = trunc i8 %4 to i1
  %6 = call i1 @llvm.expect.i1(i1 %5, i1 false)
  br i1 %6, label %7, label %8

7:                                                ; preds = %1
  call void @_ZSt26__throw_bad_variant_accessPKc(ptr noundef @.str.117) #22
  br label %9

8:                                                ; preds = %1
  call void @_ZSt26__throw_bad_variant_accessPKc(ptr noundef @.str.118) #22
  br label %9

9:                                                ; preds = %8, %7
  ret void
}

; Function Attrs: mustprogress nounwind optsize uwtable
define internal noundef zeroext i1 @_ZNKSt7variantIJSt9monostateZL26nanobind_init_test_stl_extRN8nanobind7module_EE8BasicID2ZL26nanobind_init_test_stl_extS3_E8BasicID1EE22valueless_by_exceptionEv(ptr noundef nonnull align 8 dereferenceable(9) %0) #2 align 2 {
  %2 = alloca ptr, align 8
  store ptr %0, ptr %2, align 8, !tbaa !2192
  %3 = load ptr, ptr %2, align 8
  %4 = call noundef zeroext i1 @_ZNKSt8__detail9__variant16_Variant_storageILb1EJSt9monostateZL26nanobind_init_test_stl_extRN8nanobind7module_EE8BasicID2ZL26nanobind_init_test_stl_extS5_E8BasicID1EE8_M_validEv(ptr noundef nonnull align 8 dereferenceable(9) %3) #23
  %5 = xor i1 %4, true
  ret i1 %5
}

; Function Attrs: mustprogress nounwind optsize uwtable
define internal noundef i64 @_ZNKSt7variantIJSt9monostateZL26nanobind_init_test_stl_extRN8nanobind7module_EE8BasicID2ZL26nanobind_init_test_stl_extS3_E8BasicID1EE5indexEv(ptr noundef nonnull align 8 dereferenceable(9) %0) #2 align 2 {
  %2 = alloca ptr, align 8
  store ptr %0, ptr %2, align 8, !tbaa !2192
  %3 = load ptr, ptr %2, align 8
  %4 = getelementptr inbounds nuw %"struct.std::__detail::__variant::_Variant_storage.1208", ptr %3, i32 0, i32 1
  %5 = load i8, ptr %4, align 8, !tbaa !2206
  %6 = zext i8 %5 to i64
  ret i64 %6
}

; Function Attrs: mustprogress optsize uwtable
define internal noundef nonnull align 8 dereferenceable(8) ptr @_ZSt3getILm1EJSt9monostateZL26nanobind_init_test_stl_extRN8nanobind7module_EE8BasicID2ZL26nanobind_init_test_stl_extS3_E8BasicID1EERNSt19variant_alternativeIXT_ESt7variantIJDpT0_EEE4typeERSA_(ptr noundef nonnull align 8 dereferenceable(9) %0) #0 {
  %2 = alloca ptr, align 8
  store ptr %0, ptr %2, align 8, !tbaa !2192
  %3 = load ptr, ptr %2, align 8, !tbaa !2192
  %4 = call noundef i64 @_ZNKSt7variantIJSt9monostateZL26nanobind_init_test_stl_extRN8nanobind7module_EE8BasicID2ZL26nanobind_init_test_stl_extS3_E8BasicID1EE5indexEv(ptr noundef nonnull align 8 dereferenceable(9) %3) #23
  %5 = icmp ne i64 %4, 1
  br i1 %5, label %6, label %9

6:                                                ; preds = %1
  %7 = load ptr, ptr %2, align 8, !tbaa !2192
  %8 = call noundef zeroext i1 @_ZNKSt7variantIJSt9monostateZL26nanobind_init_test_stl_extRN8nanobind7module_EE8BasicID2ZL26nanobind_init_test_stl_extS3_E8BasicID1EE22valueless_by_exceptionEv(ptr noundef nonnull align 8 dereferenceable(9) %7) #23
  call void @_ZSt26__throw_bad_variant_accessb(i1 noundef zeroext %8) #22
  br label %9

9:                                                ; preds = %6, %1
  %10 = load ptr, ptr %2, align 8, !tbaa !2192
  %11 = call noundef nonnull align 8 dereferenceable(8) ptr @_ZNSt8__detail9__variant5__getILm1ERSt7variantIJSt9monostateZL26nanobind_init_test_stl_extRN8nanobind7module_EE8BasicID2ZL26nanobind_init_test_stl_extS6_E8BasicID1EEEEDcOT0_(ptr noundef nonnull align 8 dereferenceable(9) %10) #23
  ret ptr %11
}