; Function Attrs: mustprogress optsize uwtable
define internal fastcc noundef nonnull align 8 dereferenceable(8) ptr @_ZSt3getILm1EJSt9monostateZL26nanobind_init_test_stl_extRN8nanobind7module_EE8BasicID2ZL26nanobind_init_test_stl_extS3_E8BasicID1EERNSt19variant_alternativeIXT_ESt7variantIJDpT0_EEE4typeERSA_(ptr noundef nonnull readonly returned align 8 dereferenceable(9) %0) unnamed_addr #0 {
  %2 = getelementptr inbounds nuw i8, ptr %0, i64 8
  %.val = load i8, ptr %2, align 8, !tbaa !737
  %.not = icmp eq i8 %.val, 1
  br i1 %.not, label %6, label %3

3:                                                ; preds = %1
  %4 = tail call ptr @__cxa_allocate_exception(i64 16) #28
  store ptr getelementptr inbounds nuw inrange(-16, 24) (i8, ptr @_ZTVSt18bad_variant_access, i64 16), ptr %4, align 8, !tbaa !13
  %5 = getelementptr inbounds nuw i8, ptr %4, i64 8
  store ptr @.str.118, ptr %5, align 8, !tbaa !439
  tail call void @__cxa_throw(ptr nonnull %4, ptr nonnull @_ZTISt18bad_variant_access, ptr nonnull @_ZNSt9exceptionD2Ev) #31
  unreachable

6:                                                ; preds = %1
  ret ptr %0
}